; Function Attrs: nounwind uwtable
define range(i32 -1, 1) i32 @H5Pset_vlen_mem_manager(i64 noundef %0, ptr noundef %1, ptr noundef %2, ptr noundef %3, ptr noundef %4) local_unnamed_addr #0 {
  %6 = load i8, ptr @H5_libinit_g, align 1
  %7 = trunc i8 %6 to i1
  %8 = load i8, ptr @H5_libterm_g, align 1
  %9 = trunc i8 %8 to i1
  %10 = select i1 %7, i1 true, i1 %9
  br i1 %10, label %18, label %11

11:                                               ; preds = %5
  %12 = tail call i32 @H5_init_library() #8
  %13 = icmp slt i32 %12, 0
  br i1 %13, label %14, label %18

14:                                               ; preds = %11
  %15 = load i64, ptr @H5E_FUNC_g, align 8
  %16 = load i64, ptr @H5E_CANTINIT_g, align 8
  %17 = tail call i32 (ptr, ptr, i32, i64, i64, ptr, ...) @H5E_printf_stack(ptr noundef nonnull @.str.1, ptr noundef nonnull @__func__.H5Pset_vlen_mem_manager, i32 noundef 1546, i64 noundef %15, i64 noundef %16, ptr noundef nonnull @.str.2) #8
  br label %.thread23

18:                                               ; preds = %11, %5
  %19 = tail call i32 @H5CX_push() #8
  %20 = icmp slt i32 %19, 0
  br i1 %20, label %21, label %25

21:                                               ; preds = %18
  %22 = load i64, ptr @H5E_FUNC_g, align 8
  %23 = load i64, ptr @H5E_CANTSET_g, align 8
  %24 = tail call i32 (ptr, ptr, i32, i64, i64, ptr, ...) @H5E_printf_stack(ptr noundef nonnull @.str.1, ptr noundef nonnull @__func__.H5Pset_vlen_mem_manager, i32 noundef 1546, i64 noundef %22, i64 noundef %23, ptr noundef nonnull @.str.3) #8
  br label %.thread23

25:                                               ; preds = %18
  %26 = tail call i32 @H5E_clear_stack() #8
  %27 = load i64, ptr @H5P_CLS_DATASET_XFER_ID_g, align 8
  %28 = tail call ptr @H5P_object_verify(i64 noundef %0, i64 noundef %27) #8
  %29 = icmp eq ptr %28, null
  br i1 %29, label %30, label %34

30:                                               ; preds = %25
  %31 = load i64, ptr @H5E_ARGS_g, align 8
  %32 = load i64, ptr @H5E_BADTYPE_g, align 8
  %33 = tail call i32 (ptr, ptr, i32, i64, i64, ptr, ...) @H5E_printf_stack(ptr noundef nonnull @.str.1, ptr noundef nonnull @__func__.H5Pset_vlen_mem_manager, i32 noundef 1550, i64 noundef %31, i64 noundef %32, ptr noundef nonnull @.str.35) #8
  br label %.thread29

34:                                               ; preds = %25
  %35 = tail call i32 @H5P_set_vlen_mem_manager(ptr noundef nonnull %28, ptr noundef %1, ptr noundef %2, ptr noundef %3, ptr noundef %4)
  %36 = icmp slt i32 %35, 0
  br i1 %36, label %37, label %42

37:                                               ; preds = %34
  %38 = load i64, ptr @H5E_PLIST_g, align 8
  %39 = load i64, ptr @H5E_CANTSET_g, align 8
  %40 = tail call i32 (ptr, ptr, i32, i64, i64, ptr, ...) @H5E_printf_stack(ptr noundef nonnull @.str.1, ptr noundef nonnull @__func__.H5Pset_vlen_mem_manager, i32 noundef 1554, i64 noundef %38, i64 noundef %39, ptr noundef nonnull @.str.36) #8
  br label %.thread29

.thread29:                                        ; preds = %37, %30
  %41 = tail call i32 @H5CX_pop(i1 noundef zeroext true) #8
  br label %.thread23

42:                                               ; preds = %34
  %43 = tail call i32 @H5CX_pop(i1 noundef zeroext true) #8
  br label %45

.thread23:                                        ; preds = %21, %14, %.thread29
  %44 = tail call i32 @H5E_dump_api_stack() #8
  br label %45

45:                                               ; preds = %42, %.thread23
  %.0131826 = phi i32 [ -1, %.thread23 ], [ 0, %42 ]
  ret i32 %.0131826
}